; Function Attrs: mustprogress uwtable
define noundef ptr @_ZN13ATapDataModel25conversationPacketHandlerEv(ptr nocapture noundef nonnull readonly align 8 dereferenceable(120) %0) unnamed_addr #0 align 2 {
  %2 = getelementptr inbounds i8, ptr %0, i64 80
  %3 = load i32, ptr %2, align 8
  %4 = icmp sgt i32 %3, -1
  br i1 %4, label %_ZNK13ATapDataModel13registerTableEv.exit, label %_ZNK13ATapDataModel13registerTableEv.exit.thread

_ZNK13ATapDataModel13registerTableEv.exit:        ; preds = %1
  %5 = tail call ptr @get_conversation_by_proto_id(i32 noundef %3)
  %.not = icmp eq ptr %5, null
  br i1 %.not, label %_ZNK13ATapDataModel13registerTableEv.exit.thread, label %6

6:                                                ; preds = %_ZNK13ATapDataModel13registerTableEv.exit
  %7 = getelementptr inbounds i8, ptr %0, i64 16
  %8 = load i32, ptr %7, align 8
  switch i32 %8, label %_ZNK13ATapDataModel13registerTableEv.exit.thread [
    i32 0, label %9
    i32 1, label %11
  ]

9:                                                ; preds = %6
  %10 = tail call ptr @get_endpoint_packet_func(ptr noundef nonnull %5)
  br label %_ZNK13ATapDataModel13registerTableEv.exit.thread

11:                                               ; preds = %6
  %12 = tail call ptr @get_conversation_packet_func(ptr noundef nonnull %5)
  br label %_ZNK13ATapDataModel13registerTableEv.exit.thread

_ZNK13ATapDataModel13registerTableEv.exit.thread: ; preds = %1, %_ZNK13ATapDataModel13registerTableEv.exit, %6, %11, %9
  %.0 = phi ptr [ %10, %9 ], [ %12, %11 ], [ null, %6 ], [ null, %_ZNK13ATapDataModel13registerTableEv.exit ], [ null, %1 ]
  ret ptr %.0
}